target datalayout = "e-m:e-p270:32:32-p271:32:32-p272:64:64-i64:64-i128:128-f80:128-n8:16:32:64-S128"
target triple = "x86_64-pc-linux-gnu"

%struct.buf_t = type { i32, ptr, i32, i32, i8, i8 }
%struct.io_init_msg_t = type { i16, ptr, i32, i32, i32 }

@.str.7 = private unnamed_addr constant [31 x i8] c"Invalid IO init header version\00", align 1
@.str.9 = private unnamed_addr constant [13 x i8] c"%s: entering\00", align 1
@__func__.io_init_msg_write_to_fd = private unnamed_addr constant [24 x i8] c"io_init_msg_write_to_fd\00", align 1
@.str.10 = private unnamed_addr constant [21 x i8] c"%s: msg->nodeid = %d\00", align 1
@.str.11 = private unnamed_addr constant [45 x i8] c"%s:%d: %s: safe_write (%zu of %d) failed: %m\00", align 1
@.str.12 = private unnamed_addr constant [9 x i8] c"io_hdr.c\00", align 1
@.str.13 = private unnamed_addr constant [48 x i8] c"%s:%d: %s: safe_write (%zu of %d) partial write\00", align 1
@.str.14 = private unnamed_addr constant [12 x i8] c"%s: leaving\00", align 1

; Function Attrs: nounwind uwtable
define internal i32 @io_init_msg_pack(ptr noundef %0, ptr noundef %1) #0 {
  %3 = alloca i32, align 4
  %4 = alloca ptr, align 8
  %5 = alloca ptr, align 8
  %6 = alloca i32, align 4
  %7 = alloca i32, align 4
  %8 = alloca i32, align 4
  %9 = alloca i32, align 4
  store ptr %0, ptr %4, align 8
  store ptr %1, ptr %5, align 8
  %10 = load ptr, ptr %4, align 8
  %11 = getelementptr inbounds nuw %struct.io_init_msg_t, ptr %10, i32 0, i32 0
  %12 = load i16, ptr %11, align 8
  %13 = zext i16 %12 to i32
  %14 = icmp sge i32 %13, 10240
  br i1 %14, label %15, label %74

15:                                               ; preds = %2
  call void @llvm.lifetime.start.p0(i64 4, ptr %6) #6
  call void @llvm.lifetime.start.p0(i64 4, ptr %7) #6
  call void @llvm.lifetime.start.p0(i64 4, ptr %8) #6
  store i32 0, ptr %8, align 4
  %16 = load ptr, ptr %5, align 8
  %17 = getelementptr inbounds nuw %struct.buf_t, ptr %16, i32 0, i32 3
  %18 = load i32, ptr %17, align 4
  store i32 %18, ptr %6, align 4
  %19 = load i32, ptr %8, align 4
  %20 = load ptr, ptr %5, align 8
  call void @pack32(i32 noundef %19, ptr noundef %20)
  %21 = load ptr, ptr %4, align 8
  %22 = getelementptr inbounds nuw %struct.io_init_msg_t, ptr %21, i32 0, i32 0
  %23 = load i16, ptr %22, align 8
  %24 = load ptr, ptr %5, align 8
  call void @pack16(i16 noundef zeroext %23, ptr noundef %24)
  %25 = load ptr, ptr %4, align 8
  %26 = getelementptr inbounds nuw %struct.io_init_msg_t, ptr %25, i32 0, i32 2
  %27 = load i32, ptr %26, align 8
  %28 = load ptr, ptr %5, align 8
  call void @pack32(i32 noundef %27, ptr noundef %28)
  %29 = load ptr, ptr %4, align 8
  %30 = getelementptr inbounds nuw %struct.io_init_msg_t, ptr %29, i32 0, i32 3
  %31 = load i32, ptr %30, align 4
  %32 = load ptr, ptr %5, align 8
  call void @pack32(i32 noundef %31, ptr noundef %32)
  %33 = load ptr, ptr %4, align 8
  %34 = getelementptr inbounds nuw %struct.io_init_msg_t, ptr %33, i32 0, i32 4
  %35 = load i32, ptr %34, align 8
  %36 = load ptr, ptr %5, align 8
  call void @pack32(i32 noundef %35, ptr noundef %36)
  br label %37

37:                                               ; preds = %15
  call void @llvm.lifetime.start.p0(i64 4, ptr %9) #6
  store i32 0, ptr %9, align 4
  %38 = load ptr, ptr %4, align 8
  %39 = getelementptr inbounds nuw %struct.io_init_msg_t, ptr %38, i32 0, i32 1
  %40 = load ptr, ptr %39, align 8
  %41 = icmp ne ptr %40, null
  br i1 %41, label %42, label %49

42:                                               ; preds = %37
  %43 = load ptr, ptr %4, align 8
  %44 = getelementptr inbounds nuw %struct.io_init_msg_t, ptr %43, i32 0, i32 1
  %45 = load ptr, ptr %44, align 8
  %46 = call i64 @strlen(ptr noundef %45) #8
  %47 = trunc i64 %46 to i32
  %48 = add i32 %47, 1
  store i32 %48, ptr %9, align 4
  br label %49

49:                                               ; preds = %42, %37
  %50 = load ptr, ptr %4, align 8
  %51 = getelementptr inbounds nuw %struct.io_init_msg_t, ptr %50, i32 0, i32 1
  %52 = load ptr, ptr %51, align 8
  %53 = load i32, ptr %9, align 4
  %54 = load ptr, ptr %5, align 8
  call void @packmem(ptr noundef %52, i32 noundef %53, ptr noundef %54)
  call void @llvm.lifetime.end.p0(i64 4, ptr %9) #6
  br label %55

55:                                               ; preds = %49
  br label %56

56:                                               ; preds = %55
  %57 = load ptr, ptr %5, align 8
  %58 = getelementptr inbounds nuw %struct.buf_t, ptr %57, i32 0, i32 3
  %59 = load i32, ptr %58, align 4
  store i32 %59, ptr %7, align 4
  %60 = load i32, ptr %7, align 4
  %61 = load i32, ptr %6, align 4
  %62 = sub i32 %60, %61
  %63 = zext i32 %62 to i64
  %64 = sub i64 %63, 4
  %65 = trunc i64 %64 to i32
  store i32 %65, ptr %8, align 4
  %66 = load i32, ptr %6, align 4
  %67 = load ptr, ptr %5, align 8
  %68 = getelementptr inbounds nuw %struct.buf_t, ptr %67, i32 0, i32 3
  store i32 %66, ptr %68, align 4
  %69 = load i32, ptr %8, align 4
  %70 = load ptr, ptr %5, align 8
  call void @pack32(i32 noundef %69, ptr noundef %70)
  %71 = load i32, ptr %7, align 4
  %72 = load ptr, ptr %5, align 8
  %73 = getelementptr inbounds nuw %struct.buf_t, ptr %72, i32 0, i32 3
  store i32 %71, ptr %73, align 4
  call void @llvm.lifetime.end.p0(i64 4, ptr %8) #6
  call void @llvm.lifetime.end.p0(i64 4, ptr %7) #6
  call void @llvm.lifetime.end.p0(i64 4, ptr %6) #6
  br label %76

74:                                               ; preds = %2
  %75 = call i32 (ptr, ...) @error(ptr noundef @.str.7)
  store i32 -1, ptr %3, align 4
  br label %77

76:                                               ; preds = %56
  store i32 0, ptr %3, align 4
  br label %77

77:                                               ; preds = %76, %74
  %78 = load i32, ptr %3, align 4
  ret i32 %78
}

; Function Attrs: nounwind uwtable
define dso_local i32 @io_init_msg_write_to_fd(i32 noundef %0, ptr noundef %1) #0 {
  %3 = alloca i32, align 4
  %4 = alloca i32, align 4
  %5 = alloca ptr, align 8
  %6 = alloca i32, align 4
  %7 = alloca ptr, align 8
  %8 = alloca i64, align 8
  %9 = alloca ptr, align 8
  %10 = alloca i32, align 4
  %11 = alloca i32, align 4
  store i32 %0, ptr %4, align 4
  store ptr %1, ptr %5, align 8
  call void @llvm.lifetime.start.p0(i64 4, ptr %6) #6
  store i32 -1, ptr %6, align 4
  call void @llvm.lifetime.start.p0(i64 8, ptr %7) #6
  %12 = call ptr @init_buf(i32 noundef 0)
  store ptr %12, ptr %7, align 8
  br label %13

13:                                               ; preds = %2
  br label %14

14:                                               ; preds = %13
  %15 = call i32 @get_log_level()
  %16 = icmp sge i32 %15, 6
  br i1 %16, label %17, label %18

17:                                               ; preds = %14
  call void (i32, ptr, ...) @log_var(i32 noundef 6, ptr noundef @.str.9, ptr noundef @__func__.io_init_msg_write_to_fd)
  br label %18

18:                                               ; preds = %17, %14
  br label %19

19:                                               ; preds = %18
  br label %20

20:                                               ; preds = %19
  br label %21

21:                                               ; preds = %20
  br label %22

22:                                               ; preds = %21
  br label %23

23:                                               ; preds = %22
  br label %24

24:                                               ; preds = %23
  %25 = call i32 @get_log_level()
  %26 = icmp sge i32 %25, 6
  br i1 %26, label %27, label %31

27:                                               ; preds = %24
  %28 = load ptr, ptr %5, align 8
  %29 = getelementptr inbounds nuw %struct.io_init_msg_t, ptr %28, i32 0, i32 2
  %30 = load i32, ptr %29, align 8
  call void (i32, ptr, ...) @log_var(i32 noundef 6, ptr noundef @.str.10, ptr noundef @__func__.io_init_msg_write_to_fd, i32 noundef %30)
  br label %31

31:                                               ; preds = %27, %24
  br label %32

32:                                               ; preds = %31
  br label %33

33:                                               ; preds = %32
  br label %34

34:                                               ; preds = %33
  br label %35

35:                                               ; preds = %34
  %36 = load ptr, ptr %5, align 8
  %37 = load ptr, ptr %7, align 8
  %38 = call i32 @io_init_msg_pack(ptr noundef %36, ptr noundef %37)
  %39 = icmp ne i32 %38, 0
  br i1 %39, label %40, label %41

40:                                               ; preds = %35
  br label %119

41:                                               ; preds = %35
  br label %42

42:                                               ; preds = %41
  call void @llvm.lifetime.start.p0(i64 8, ptr %8) #6
  %43 = load ptr, ptr %7, align 8
  %44 = getelementptr inbounds nuw %struct.buf_t, ptr %43, i32 0, i32 3
  %45 = load i32, ptr %44, align 4
  %46 = zext i32 %45 to i64
  store i64 %46, ptr %8, align 8
  call void @llvm.lifetime.start.p0(i64 8, ptr %9) #6
  %47 = load ptr, ptr %7, align 8
  %48 = getelementptr inbounds nuw %struct.buf_t, ptr %47, i32 0, i32 1
  %49 = load ptr, ptr %48, align 8
  store ptr %49, ptr %9, align 8
  call void @llvm.lifetime.start.p0(i64 4, ptr %10) #6
  br label %50

50:                                               ; preds = %112, %69, %42
  %51 = load i64, ptr %8, align 8
  %52 = icmp ugt i64 %51, 0
  br i1 %52, label %53, label %113

53:                                               ; preds = %50
  %54 = load i32, ptr %4, align 4
  %55 = load ptr, ptr %9, align 8
  %56 = load i64, ptr %8, align 8
  %57 = call i64 @write(i32 noundef %54, ptr noundef %55, i64 noundef %56)
  %58 = trunc i64 %57 to i32
  store i32 %58, ptr %10, align 4
  %59 = load i32, ptr %10, align 4
  %60 = icmp slt i32 %59, 0
  br i1 %60, label %61, label %85

61:                                               ; preds = %53
  %62 = call ptr @__errno_location() #7
  %63 = load i32, ptr %62, align 4
  %64 = icmp eq i32 %63, 11
  br i1 %64, label %69, label %65

65:                                               ; preds = %61
  %66 = call ptr @__errno_location() #7
  %67 = load i32, ptr %66, align 4
  %68 = icmp eq i32 %67, 4
  br i1 %68, label %69, label %70

69:                                               ; preds = %65, %61
  br label %50, !llvm.loop !11

70:                                               ; preds = %65
  br label %71

71:                                               ; preds = %70
  br label %72

72:                                               ; preds = %71
  %73 = call i32 @get_log_level()
  %74 = icmp sge i32 %73, 5
  br i1 %74, label %75, label %80

75:                                               ; preds = %72
  %76 = load i64, ptr %8, align 8
  %77 = load ptr, ptr %7, align 8
  %78 = getelementptr inbounds nuw %struct.buf_t, ptr %77, i32 0, i32 3
  %79 = load i32, ptr %78, align 4
  call void (i32, ptr, ...) @log_var(i32 noundef 5, ptr noundef @.str.11, ptr noundef @.str.12, i32 noundef 226, ptr noundef @__func__.io_init_msg_write_to_fd, i64 noundef %76, i32 noundef %79)
  br label %80

80:                                               ; preds = %75, %72
  br label %81

81:                                               ; preds = %80
  br label %82

82:                                               ; preds = %81
  br label %83

83:                                               ; preds = %82
  br label %84

84:                                               ; preds = %83
  store i32 10, ptr %11, align 4
  br label %114

85:                                               ; preds = %53
  %86 = load i32, ptr %10, align 4
  %87 = load ptr, ptr %9, align 8
  %88 = sext i32 %86 to i64
  %89 = getelementptr inbounds i8, ptr %87, i64 %88
  store ptr %89, ptr %9, align 8
  %90 = load i32, ptr %10, align 4
  %91 = sext i32 %90 to i64
  %92 = load i64, ptr %8, align 8
  %93 = sub i64 %92, %91
  store i64 %93, ptr %8, align 8
  %94 = load i64, ptr %8, align 8
  %95 = icmp ugt i64 %94, 0
  br i1 %95, label %96, label %111

96:                                               ; preds = %85
  br label %97

97:                                               ; preds = %96
  br label %98

98:                                               ; preds = %97
  %99 = call i32 @get_log_level()
  %100 = icmp sge i32 %99, 7
  br i1 %100, label %101, label %106

101:                                              ; preds = %98
  %102 = load i64, ptr %8, align 8
  %103 = load ptr, ptr %7, align 8
  %104 = getelementptr inbounds nuw %struct.buf_t, ptr %103, i32 0, i32 3
  %105 = load i32, ptr %104, align 4
  call void (i32, ptr, ...) @log_var(i32 noundef 7, ptr noundef @.str.13, ptr noundef @.str.12, i32 noundef 226, ptr noundef @__func__.io_init_msg_write_to_fd, i64 noundef %102, i32 noundef %105)
  br label %106

106:                                              ; preds = %101, %98
  br label %107

107:                                              ; preds = %106
  br label %108

108:                                              ; preds = %107
  br label %109

109:                                              ; preds = %108
  br label %110

110:                                              ; preds = %109
  br label %111

111:                                              ; preds = %110, %85
  br label %112

112:                                              ; preds = %111
  br label %50, !llvm.loop !11

113:                                              ; preds = %50
  store i32 0, ptr %11, align 4
  br label %114

114:                                              ; preds = %84, %113
  call void @llvm.lifetime.end.p0(i64 4, ptr %10) #6
  call void @llvm.lifetime.end.p0(i64 8, ptr %9) #6
  call void @llvm.lifetime.end.p0(i64 8, ptr %8) #6
  %115 = load i32, ptr %11, align 4
  switch i32 %115, label %139 [
    i32 0, label %116
    i32 10, label %119
  ]

116:                                              ; preds = %114
  br label %117

117:                                              ; preds = %116
  br label %118

118:                                              ; preds = %117
  store i32 0, ptr %6, align 4
  br label %119

119:                                              ; preds = %118, %114, %40
  br label %120

120:                                              ; preds = %119
  %121 = load ptr, ptr %7, align 8
  %122 = icmp ne ptr %121, null
  br i1 %122, label %123, label %125

123:                                              ; preds = %120
  %124 = load ptr, ptr %7, align 8
  call void @free_buf(ptr noundef %124)
  br label %125

125:                                              ; preds = %123, %120
  store ptr null, ptr %7, align 8
  br label %126

126:                                              ; preds = %125
  br label %127

127:                                              ; preds = %126
  br label %128

128:                                              ; preds = %127
  br label %129

129:                                              ; preds = %128
  %130 = call i32 @get_log_level()
  %131 = icmp sge i32 %130, 6
  br i1 %131, label %132, label %133

132:                                              ; preds = %129
  call void (i32, ptr, ...) @log_var(i32 noundef 6, ptr noundef @.str.14, ptr noundef @__func__.io_init_msg_write_to_fd)
  br label %133

133:                                              ; preds = %132, %129
  br label %134

134:                                              ; preds = %133
  br label %135

135:                                              ; preds = %134
  br label %136

136:                                              ; preds = %135
  br label %137

137:                                              ; preds = %136
  %138 = load i32, ptr %6, align 4
  store i32 %138, ptr %3, align 4
  store i32 1, ptr %11, align 4
  br label %139

139:                                              ; preds = %137, %114
  call void @llvm.lifetime.end.p0(i64 8, ptr %7) #6
  call void @llvm.lifetime.end.p0(i64 4, ptr %6) #6
  %140 = load i32, ptr %3, align 4
  ret i32 %140
}