; Function Attrs: nounwind uwtable
define dso_local range(i32 -1, 1) i32 @io_init_msg_write_to_fd(i32 noundef %0, ptr noundef readonly captures(none) %1) local_unnamed_addr #0 {
  %3 = tail call ptr @init_buf(i32 noundef 0) #7
  %4 = tail call i32 @get_log_level() #7
  %5 = icmp sgt i32 %4, 5
  br i1 %5, label %6, label %7

6:                                                ; preds = %2
  tail call void (i32, ptr, ...) @log_var(i32 noundef 6, ptr noundef nonnull @.str.9, ptr noundef nonnull @__func__.io_init_msg_write_to_fd) #7
  br label %7

7:                                                ; preds = %6, %2
  %8 = tail call i32 @get_log_level() #7
  %9 = icmp sgt i32 %8, 5
  br i1 %9, label %10, label %13

10:                                               ; preds = %7
  %11 = getelementptr inbounds nuw i8, ptr %1, i64 16
  %12 = load i32, ptr %11, align 8
  tail call void (i32, ptr, ...) @log_var(i32 noundef 6, ptr noundef nonnull @.str.10, ptr noundef nonnull @__func__.io_init_msg_write_to_fd, i32 noundef %12) #7
  br label %13

13:                                               ; preds = %10, %7
  %14 = load i16, ptr %1, align 8
  %15 = icmp ugt i16 %14, 10239
  br i1 %15, label %16, label %io_init_msg_pack.exit

16:                                               ; preds = %13
  %17 = getelementptr inbounds nuw i8, ptr %3, i64 20
  %18 = load i32, ptr %17, align 4
  tail call void @pack32(i32 noundef 0, ptr noundef %3) #7
  %19 = load i16, ptr %1, align 8
  tail call void @pack16(i16 noundef zeroext %19, ptr noundef %3) #7
  %20 = getelementptr inbounds nuw i8, ptr %1, i64 16
  %21 = load i32, ptr %20, align 8
  tail call void @pack32(i32 noundef %21, ptr noundef %3) #7
  %22 = getelementptr inbounds nuw i8, ptr %1, i64 20
  %23 = load i32, ptr %22, align 4
  tail call void @pack32(i32 noundef %23, ptr noundef %3) #7
  %24 = getelementptr inbounds nuw i8, ptr %1, i64 24
  %25 = load i32, ptr %24, align 8
  tail call void @pack32(i32 noundef %25, ptr noundef %3) #7
  %26 = getelementptr inbounds nuw i8, ptr %1, i64 8
  %27 = load ptr, ptr %26, align 8
  %.not.i = icmp eq ptr %27, null
  br i1 %.not.i, label %33, label %28

28:                                               ; preds = %16
  %29 = tail call i64 @strlen(ptr noundef nonnull dereferenceable(1) %27) #9
  %30 = trunc i64 %29 to i32
  %31 = add i32 %30, 1
  br label %33

io_init_msg_pack.exit:                            ; preds = %13
  %32 = tail call i32 (ptr, ...) @error(ptr noundef nonnull @.str.7) #7
  br label %.thread

33:                                               ; preds = %16, %28
  %.0.i = phi i32 [ %31, %28 ], [ 0, %16 ]
  tail call void @packmem(ptr noundef %27, i32 noundef %.0.i, ptr noundef nonnull %3) #7
  %34 = load i32, ptr %17, align 4
  %reass.sub = sub i32 %34, %18
  %35 = add i32 %reass.sub, -4
  store i32 %18, ptr %17, align 4
  tail call void @pack32(i32 noundef %35, ptr noundef nonnull %3) #7
  store i32 %34, ptr %17, align 4
  %.not3152 = icmp eq i32 %34, 0
  br i1 %.not3152, label %.thread.thread62, label %.lr.ph.preheader

.lr.ph.preheader:                                 ; preds = %33
  %36 = getelementptr inbounds nuw i8, ptr %3, i64 8
  %37 = load ptr, ptr %36, align 8
  %38 = zext i32 %34 to i64
  br label %.lr.ph.split

.lr.ph.split:                                     ; preds = %.lr.ph.split.backedge, %.lr.ph.preheader
  %.024.ph55 = phi ptr [ %37, %.lr.ph.preheader ], [ %51, %.lr.ph.split.backedge ]
  %.025.ph53 = phi i64 [ %38, %.lr.ph.preheader ], [ %52, %.lr.ph.split.backedge ]
  %39 = tail call i64 @write(i32 noundef %0, ptr noundef %.024.ph55, i64 noundef %.025.ph53) #7
  %40 = and i64 %39, 2147483648
  %.not3250 = icmp eq i64 %40, 0
  br i1 %.not3250, label %.split.us, label %.lr.ph51

.lr.ph51:                                         ; preds = %.lr.ph.split
  %41 = tail call ptr @__errno_location() #8
  br label %42

42:                                               ; preds = %.lr.ph51, %44
  %43 = load i32, ptr %41, align 4
  switch i32 %43, label %.split45.us [
    i32 11, label %44
    i32 4, label %44
  ]

44:                                               ; preds = %42, %42
  %45 = tail call i64 @write(i32 noundef %0, ptr noundef %.024.ph55, i64 noundef %.025.ph53) #7
  %46 = and i64 %45, 2147483648
  %.not32 = icmp eq i64 %46, 0
  br i1 %.not32, label %.split.us, label %42

.split45.us:                                      ; preds = %42
  %47 = tail call i32 @get_log_level() #7
  %48 = icmp sgt i32 %47, 4
  br i1 %48, label %.thread.thread, label %.thread

.thread.thread:                                   ; preds = %.split45.us
  %49 = load i32, ptr %17, align 4
  tail call void (i32, ptr, ...) @log_var(i32 noundef 5, ptr noundef nonnull @.str.11, ptr noundef nonnull @.str.12, i32 noundef 226, ptr noundef nonnull @__func__.io_init_msg_write_to_fd, i64 noundef %.025.ph53, i32 noundef %49) #7
  br label %.thread.thread62

.split.us:                                        ; preds = %44, %.lr.ph.split
  %.us-phi = phi i64 [ %39, %.lr.ph.split ], [ %45, %44 ]
  %50 = and i64 %.us-phi, 2147483647
  %51 = getelementptr inbounds nuw i8, ptr %.024.ph55, i64 %50
  %52 = sub i64 %.025.ph53, %50
  %.not33 = icmp eq i64 %52, 0
  br i1 %.not33, label %.thread, label %53

53:                                               ; preds = %.split.us
  %54 = tail call i32 @get_log_level() #7
  %55 = icmp sgt i32 %54, 6
  br i1 %55, label %56, label %.lr.ph.split.backedge

56:                                               ; preds = %53
  %57 = load i32, ptr %17, align 4
  tail call void (i32, ptr, ...) @log_var(i32 noundef 7, ptr noundef nonnull @.str.13, ptr noundef nonnull @.str.12, i32 noundef 226, ptr noundef nonnull @__func__.io_init_msg_write_to_fd, i64 noundef %52, i32 noundef %57) #7
  br label %.lr.ph.split.backedge

.lr.ph.split.backedge:                            ; preds = %56, %53
  br label %.lr.ph.split, !llvm.loop !11

.thread:                                          ; preds = %.split.us, %.split45.us, %io_init_msg_pack.exit
  %.026 = phi i32 [ -1, %io_init_msg_pack.exit ], [ -1, %.split45.us ], [ 0, %.split.us ]
  %.not34 = icmp eq ptr %3, null
  br i1 %.not34, label %58, label %.thread.thread62

.thread.thread62:                                 ; preds = %33, %.thread.thread, %.thread
  %.02640 = phi i32 [ -1, %.thread.thread ], [ %.026, %.thread ], [ 0, %33 ]
  tail call void @free_buf(ptr noundef nonnull %3) #7
  br label %58

58:                                               ; preds = %.thread.thread62, %.thread
  %.02641 = phi i32 [ %.02640, %.thread.thread62 ], [ %.026, %.thread ]
  %59 = tail call i32 @get_log_level() #7
  %60 = icmp sgt i32 %59, 5
  br i1 %60, label %61, label %62

61:                                               ; preds = %58
  tail call void (i32, ptr, ...) @log_var(i32 noundef 6, ptr noundef nonnull @.str.14, ptr noundef nonnull @__func__.io_init_msg_write_to_fd) #7
  br label %62

62:                                               ; preds = %58, %61
  ret i32 %.02641
}